target datalayout = "e-m:e-p270:32:32-p271:32:32-p272:64:64-i64:64-i128:128-f80:128-n8:16:32:64-S128"
target triple = "x86_64-pc-linux-gnu"

%"class.std::__cxx11::basic_string" = type { %"struct.std::__cxx11::basic_string<char>::_Alloc_hider", i64, %union.anon }
%"struct.std::__cxx11::basic_string<char>::_Alloc_hider" = type { ptr }
%union.anon = type { i64, [8 x i8] }
%class.cmCursesLongMessageForm = type { %class.cmCursesForm, %"class.std::__cxx11::basic_string", %"class.std::__cxx11::basic_string", i32, [2 x ptr] }
%class.cmCursesForm = type { ptr, ptr }
%struct._win_st = type { i16, i16, i16, i16, i16, i16, i16, i32, i32, i8, i8, i8, i8, i8, i8, i8, i8, i8, i32, ptr, i16, i16, i32, i32, ptr, %"struct._win_st::pdat", i16, %struct.cchar_t, i32 }
%"struct._win_st::pdat" = type { i16, i16, i16, i16, i16, i16 }
%struct.cchar_t = type { i32, [5 x i32], i32 }

@stdscr = external global ptr, align 8

; Function Attrs: mustprogress uwtable
define dso_local void @_ZNK23cmCursesLongMessageForm11DrawMessageEPKc(ptr noundef nonnull align 8 dereferenceable(104) %0, ptr noundef %1) #0 align 2 {
  %3 = alloca ptr, align 8
  %4 = alloca ptr, align 8
  %5 = alloca i32, align 4
  store ptr %0, ptr %3, align 8
  store ptr %1, ptr %4, align 8
  %6 = load ptr, ptr %3, align 8
  store i32 0, ptr %5, align 4
  br label %7

7:                                                ; preds = %54, %2
  %8 = load ptr, ptr %4, align 8
  %9 = load i32, ptr %5, align 4
  %10 = sext i32 %9 to i64
  %11 = getelementptr inbounds i8, ptr %8, i64 %10
  %12 = load i8, ptr %11, align 1
  %13 = sext i8 %12 to i32
  %14 = icmp ne i32 %13, 0
  br i1 %14, label %15, label %18

15:                                               ; preds = %7
  %16 = load i32, ptr %5, align 4
  %17 = icmp slt i32 %16, 60000
  br label %18

18:                                               ; preds = %15, %7
  %19 = phi i1 [ false, %7 ], [ %17, %15 ]
  br i1 %19, label %20, label %57

20:                                               ; preds = %18
  %21 = load ptr, ptr %4, align 8
  %22 = load i32, ptr %5, align 4
  %23 = sext i32 %22 to i64
  %24 = getelementptr inbounds i8, ptr %21, i64 %23
  %25 = load i8, ptr %24, align 1
  %26 = sext i8 %25 to i32
  %27 = icmp eq i32 %26, 10
  br i1 %27, label %28, label %44

28:                                               ; preds = %20
  %29 = load ptr, ptr %4, align 8
  %30 = load i32, ptr %5, align 4
  %31 = add nsw i32 %30, 1
  %32 = sext i32 %31 to i64
  %33 = getelementptr inbounds i8, ptr %29, i64 %32
  %34 = load i8, ptr %33, align 1
  %35 = sext i8 %34 to i32
  %36 = icmp ne i32 %35, 0
  br i1 %36, label %37, label %44

37:                                               ; preds = %28
  %38 = getelementptr inbounds %class.cmCursesForm, ptr %6, i32 0, i32 1
  %39 = load ptr, ptr %38, align 8
  %40 = call i32 @form_driver(ptr noundef %39, i32 noundef 530)
  %41 = getelementptr inbounds %class.cmCursesForm, ptr %6, i32 0, i32 1
  %42 = load ptr, ptr %41, align 8
  %43 = call i32 @form_driver(ptr noundef %42, i32 noundef 536)
  br label %54

44:                                               ; preds = %28, %20
  %45 = getelementptr inbounds %class.cmCursesForm, ptr %6, i32 0, i32 1
  %46 = load ptr, ptr %45, align 8
  %47 = load ptr, ptr %4, align 8
  %48 = load i32, ptr %5, align 4
  %49 = sext i32 %48 to i64
  %50 = getelementptr inbounds i8, ptr %47, i64 %49
  %51 = load i8, ptr %50, align 1
  %52 = sext i8 %51 to i32
  %53 = call i32 @form_driver(ptr noundef %46, i32 noundef %52)
  br label %54

54:                                               ; preds = %44, %37
  %55 = load i32, ptr %5, align 4
  %56 = add nsw i32 %55, 1
  store i32 %56, ptr %5, align 4
  br label %7, !llvm.loop !5

57:                                               ; preds = %18
  %58 = getelementptr inbounds %class.cmCursesLongMessageForm, ptr %6, i32 0, i32 3
  %59 = load i32, ptr %58, align 8
  %60 = icmp eq i32 %59, 1
  br i1 %60, label %61, label %65

61:                                               ; preds = %57
  %62 = getelementptr inbounds %class.cmCursesForm, ptr %6, i32 0, i32 1
  %63 = load ptr, ptr %62, align 8
  %64 = call i32 @form_driver(ptr noundef %63, i32 noundef 535)
  br label %69

65:                                               ; preds = %57
  %66 = getelementptr inbounds %class.cmCursesForm, ptr %6, i32 0, i32 1
  %67 = load ptr, ptr %66, align 8
  %68 = call i32 @form_driver(ptr noundef %67, i32 noundef 534)
  br label %69

69:                                               ; preds = %65, %61
  ret void
}

; Function Attrs: mustprogress uwtable
define dso_local void @_ZN23cmCursesLongMessageForm6RenderEiiii(ptr noundef nonnull align 8 dereferenceable(104) %0, i32 noundef %1, i32 noundef %2, i32 noundef %3, i32 noundef %4) unnamed_addr #0 align 2 {
  %6 = alloca ptr, align 8
  %7 = alloca i32, align 4
  %8 = alloca i32, align 4
  %9 = alloca i32, align 4
  %10 = alloca i32, align 4
  %11 = alloca i32, align 4
  %12 = alloca i32, align 4
  store ptr %0, ptr %6, align 8
  store i32 %1, ptr %7, align 4
  store i32 %2, ptr %8, align 4
  store i32 %3, ptr %9, align 4
  store i32 %4, ptr %10, align 4
  %13 = load ptr, ptr %6, align 8
  %14 = load ptr, ptr @stdscr, align 8
  %15 = icmp ne ptr null, %14
  br i1 %15, label %16, label %22

16:                                               ; preds = %5
  %17 = load ptr, ptr @stdscr, align 8
  %18 = getelementptr inbounds %struct._win_st, ptr %17, i32 0, i32 2
  %19 = load i16, ptr %18, align 4
  %20 = sext i16 %19 to i32
  %21 = add nsw i32 %20, 1
  br label %23

22:                                               ; preds = %5
  br label %23

23:                                               ; preds = %22, %16
  %24 = phi i32 [ %21, %16 ], [ -1, %22 ]
  store i32 %24, ptr %12, align 4
  %25 = load ptr, ptr @stdscr, align 8
  %26 = icmp ne ptr null, %25
  br i1 %26, label %27, label %33

27:                                               ; preds = %23
  %28 = load ptr, ptr @stdscr, align 8
  %29 = getelementptr inbounds %struct._win_st, ptr %28, i32 0, i32 3
  %30 = load i16, ptr %29, align 2
  %31 = sext i16 %30 to i32
  %32 = add nsw i32 %31, 1
  br label %34

33:                                               ; preds = %23
  br label %34

34:                                               ; preds = %33, %27
  %35 = phi i32 [ %32, %27 ], [ -1, %33 ]
  store i32 %35, ptr %11, align 4
  %36 = getelementptr inbounds %class.cmCursesForm, ptr %13, i32 0, i32 1
  %37 = load ptr, ptr %36, align 8
  %38 = icmp ne ptr %37, null
  br i1 %38, label %39, label %47

39:                                               ; preds = %34
  %40 = getelementptr inbounds %class.cmCursesForm, ptr %13, i32 0, i32 1
  %41 = load ptr, ptr %40, align 8
  %42 = call i32 @unpost_form(ptr noundef %41)
  %43 = getelementptr inbounds %class.cmCursesForm, ptr %13, i32 0, i32 1
  %44 = load ptr, ptr %43, align 8
  %45 = call i32 @free_form(ptr noundef %44)
  %46 = getelementptr inbounds %class.cmCursesForm, ptr %13, i32 0, i32 1
  store ptr null, ptr %46, align 8
  br label %47

47:                                               ; preds = %39, %34
  %48 = getelementptr inbounds %class.cmCursesLongMessageForm, ptr %13, i32 0, i32 4
  %49 = getelementptr inbounds [2 x ptr], ptr %48, i64 0, i64 0
  %50 = load ptr, ptr %49, align 8
  %51 = icmp ne ptr %50, null
  br i1 %51, label %52, label %59

52:                                               ; preds = %47
  %53 = getelementptr inbounds %class.cmCursesLongMessageForm, ptr %13, i32 0, i32 4
  %54 = getelementptr inbounds [2 x ptr], ptr %53, i64 0, i64 0
  %55 = load ptr, ptr %54, align 8
  %56 = call i32 @free_field(ptr noundef %55)
  %57 = getelementptr inbounds %class.cmCursesLongMessageForm, ptr %13, i32 0, i32 4
  %58 = getelementptr inbounds [2 x ptr], ptr %57, i64 0, i64 0
  store ptr null, ptr %58, align 8
  br label %59

59:                                               ; preds = %52, %47
  %60 = load i32, ptr %12, align 4
  %61 = sub nsw i32 %60, 6
  %62 = load i32, ptr %11, align 4
  %63 = sub nsw i32 %62, 2
  %64 = call ptr @new_field(i32 noundef %61, i32 noundef %63, i32 noundef 1, i32 noundef 1, i32 noundef 0, i32 noundef 0)
  %65 = getelementptr inbounds %class.cmCursesLongMessageForm, ptr %13, i32 0, i32 4
  %66 = getelementptr inbounds [2 x ptr], ptr %65, i64 0, i64 0
  store ptr %64, ptr %66, align 8
  %67 = getelementptr inbounds %class.cmCursesLongMessageForm, ptr %13, i32 0, i32 4
  %68 = getelementptr inbounds [2 x ptr], ptr %67, i64 0, i64 0
  %69 = load ptr, ptr %68, align 8
  %70 = call i32 @field_opts_off(ptr noundef %69, i32 noundef 512)
  %71 = getelementptr inbounds %class.cmCursesLongMessageForm, ptr %13, i32 0, i32 4
  %72 = getelementptr inbounds [2 x ptr], ptr %71, i64 0, i64 0
  %73 = call ptr @new_form(ptr noundef %72)
  %74 = getelementptr inbounds %class.cmCursesForm, ptr %13, i32 0, i32 1
  store ptr %73, ptr %74, align 8
  %75 = getelementptr inbounds %class.cmCursesForm, ptr %13, i32 0, i32 1
  %76 = load ptr, ptr %75, align 8
  %77 = call i32 @post_form(ptr noundef %76)
  %78 = getelementptr inbounds %class.cmCursesForm, ptr %13, i32 0, i32 1
  %79 = load ptr, ptr %78, align 8
  %80 = call i32 @form_driver(ptr noundef %79, i32 noundef 534)
  %81 = getelementptr inbounds %class.cmCursesLongMessageForm, ptr %13, i32 0, i32 1
  %82 = call noundef ptr @_ZNKSt7__cxx1112basic_stringIcSt11char_traitsIcESaIcEE5c_strEv(ptr noundef nonnull align 8 dereferenceable(32) %81) #8
  call void @_ZNK23cmCursesLongMessageForm11DrawMessageEPKc(ptr noundef nonnull align 8 dereferenceable(104) %13, ptr noundef %82)
  %83 = load ptr, ptr %13, align 8
  %84 = getelementptr inbounds ptr, ptr %83, i64 4
  %85 = load ptr, ptr %84, align 8
  call void %85(ptr noundef nonnull align 8 dereferenceable(104) %13)
  %86 = load ptr, ptr @stdscr, align 8
  %87 = load ptr, ptr @stdscr, align 8
  %88 = icmp ne ptr null, %87
  br i1 %88, label %89, label %95

89:                                               ; preds = %59
  %90 = load ptr, ptr @stdscr, align 8
  %91 = getelementptr inbounds %struct._win_st, ptr %90, i32 0, i32 2
  %92 = load i16, ptr %91, align 4
  %93 = sext i16 %92 to i32
  %94 = add nsw i32 %93, 1
  br label %96

95:                                               ; preds = %59
  br label %96

96:                                               ; preds = %95, %89
  %97 = phi i32 [ %94, %89 ], [ -1, %95 ]
  %98 = call i32 @wtouchln(ptr noundef %86, i32 noundef 0, i32 noundef %97, i32 noundef 1)
  %99 = call i32 @refresh()
  ret void
}