; Function Attrs: mustprogress uwtable
define dso_local void @_ZN23cmCursesLongMessageForm6RenderEiiii(ptr noundef nonnull align 8 dereferenceable(104) %0, i32 %1, i32 %2, i32 %3, i32 %4) unnamed_addr #0 align 2 {
  %6 = load ptr, ptr @stdscr, align 8
  %.not = icmp eq ptr %6, null
  br i1 %.not, label %.thread, label %7

7:                                                ; preds = %5
  %8 = getelementptr inbounds i8, ptr %6, i64 4
  %9 = load i16, ptr %8, align 4
  %10 = sext i16 %9 to i32
  %11 = add nsw i32 %10, -5
  %12 = getelementptr inbounds i8, ptr %6, i64 6
  %13 = load i16, ptr %12, align 2
  %14 = sext i16 %13 to i32
  %15 = add nsw i32 %14, -1
  br label %.thread

.thread:                                          ; preds = %5, %7
  %16 = phi i32 [ %11, %7 ], [ -7, %5 ]
  %17 = phi i32 [ %15, %7 ], [ -3, %5 ]
  %18 = getelementptr inbounds i8, ptr %0, i64 8
  %19 = load ptr, ptr %18, align 8
  %.not7 = icmp eq ptr %19, null
  br i1 %.not7, label %24, label %20

20:                                               ; preds = %.thread
  %21 = tail call i32 @unpost_form(ptr noundef nonnull %19)
  %22 = load ptr, ptr %18, align 8
  %23 = tail call i32 @free_form(ptr noundef %22)
  store ptr null, ptr %18, align 8
  br label %24

24:                                               ; preds = %20, %.thread
  %25 = getelementptr inbounds i8, ptr %0, i64 88
  %26 = load ptr, ptr %25, align 8
  %.not8 = icmp eq ptr %26, null
  br i1 %.not8, label %29, label %27

27:                                               ; preds = %24
  %28 = tail call i32 @free_field(ptr noundef nonnull %26)
  store ptr null, ptr %25, align 8
  br label %29

29:                                               ; preds = %27, %24
  %30 = tail call ptr @new_field(i32 noundef %16, i32 noundef %17, i32 noundef 1, i32 noundef 1, i32 noundef 0, i32 noundef 0)
  store ptr %30, ptr %25, align 8
  %31 = tail call i32 @field_opts_off(ptr noundef %30, i32 noundef 512)
  %32 = tail call ptr @new_form(ptr noundef nonnull %25)
  store ptr %32, ptr %18, align 8
  %33 = tail call i32 @post_form(ptr noundef %32)
  %34 = load ptr, ptr %18, align 8
  %35 = tail call i32 @form_driver(ptr noundef %34, i32 noundef 534)
  %36 = getelementptr inbounds i8, ptr %0, i64 16
  %37 = tail call noundef ptr @_ZNKSt7__cxx1112basic_stringIcSt11char_traitsIcESaIcEE5c_strEv(ptr noundef nonnull align 8 dereferenceable(32) %36) #13
  %38 = load i8, ptr %37, align 1
  %.not12.i = icmp eq i8 %38, 0
  br i1 %.not12.i, label %_ZNK23cmCursesLongMessageForm11DrawMessageEPKc.exit, label %.lr.ph.i

.lr.ph.i:                                         ; preds = %29
  %invariant.gep.i = getelementptr i8, ptr %37, i64 1
  br label %39

39:                                               ; preds = %53, %.lr.ph.i
  %indvars.iv.i = phi i64 [ 0, %.lr.ph.i ], [ %indvars.iv.next.i, %53 ]
  %40 = phi i8 [ %38, %.lr.ph.i ], [ %55, %53 ]
  %41 = icmp eq i8 %40, 10
  br i1 %41, label %42, label %49

42:                                               ; preds = %39
  %gep.i = getelementptr i8, ptr %invariant.gep.i, i64 %indvars.iv.i
  %43 = load i8, ptr %gep.i, align 1
  %.not.i = icmp eq i8 %43, 0
  br i1 %.not.i, label %49, label %44

44:                                               ; preds = %42
  %45 = load ptr, ptr %18, align 8
  %46 = tail call i32 @form_driver(ptr noundef %45, i32 noundef 530)
  %47 = load ptr, ptr %18, align 8
  %48 = tail call i32 @form_driver(ptr noundef %47, i32 noundef 536)
  br label %53

49:                                               ; preds = %42, %39
  %50 = load ptr, ptr %18, align 8
  %51 = sext i8 %40 to i32
  %52 = tail call i32 @form_driver(ptr noundef %50, i32 noundef %51)
  br label %53

53:                                               ; preds = %49, %44
  %indvars.iv.next.i = add nuw nsw i64 %indvars.iv.i, 1
  %54 = getelementptr inbounds i8, ptr %37, i64 %indvars.iv.next.i
  %55 = load i8, ptr %54, align 1
  %56 = icmp ne i8 %55, 0
  %57 = icmp ult i64 %indvars.iv.i, 59999
  %58 = and i1 %57, %56
  br i1 %58, label %39, label %_ZNK23cmCursesLongMessageForm11DrawMessageEPKc.exit, !llvm.loop !5

_ZNK23cmCursesLongMessageForm11DrawMessageEPKc.exit: ; preds = %53, %29
  %59 = getelementptr inbounds i8, ptr %0, i64 80
  %60 = load i32, ptr %59, align 8
  %61 = icmp eq i32 %60, 1
  %62 = load ptr, ptr %18, align 8
  %..i = select i1 %61, i32 535, i32 534
  %63 = tail call i32 @form_driver(ptr noundef %62, i32 noundef %..i)
  %64 = load ptr, ptr %0, align 8
  %65 = getelementptr inbounds i8, ptr %64, i64 32
  %66 = load ptr, ptr %65, align 8
  tail call void %66(ptr noundef nonnull align 8 dereferenceable(104) %0)
  %67 = load ptr, ptr @stdscr, align 8
  %.not9 = icmp eq ptr %67, null
  br i1 %.not9, label %73, label %68

68:                                               ; preds = %_ZNK23cmCursesLongMessageForm11DrawMessageEPKc.exit
  %69 = getelementptr inbounds i8, ptr %67, i64 4
  %70 = load i16, ptr %69, align 4
  %71 = sext i16 %70 to i32
  %72 = add nsw i32 %71, 1
  br label %73

73:                                               ; preds = %_ZNK23cmCursesLongMessageForm11DrawMessageEPKc.exit, %68
  %74 = phi i32 [ %72, %68 ], [ -1, %_ZNK23cmCursesLongMessageForm11DrawMessageEPKc.exit ]
  %75 = tail call i32 @wtouchln(ptr noundef %67, i32 noundef 0, i32 noundef %74, i32 noundef 1)
  %76 = tail call i32 @refresh()
  ret void
}